; Function Attrs: mustprogress uwtable
define internal void @_ZN12_GLOBAL__N_116SmtrPrintVisitor11bitwise_notEN5Yosys10Functional4NodeES3_(ptr dead_on_unwind noalias writable sret(%"class.Yosys::SExpr") align 8 %0, ptr noundef nonnull align 8 dereferenceable(56) %1, ptr readnone captures(none) %2, i32 %3, ptr %4, i32 %5) unnamed_addr #5 align 2 personality ptr @__gxx_personality_v0 {
  %7 = alloca %"class.Yosys::Functional::Node", align 8
  %8 = alloca %"class.Yosys::SExpr", align 8
  call void @llvm.lifetime.start.p0(i64 40, ptr nonnull %8) #26
  call void @llvm.lifetime.start.p0(i64 16, ptr nonnull %7)
  store ptr %4, ptr %7, align 8, !noalias !599
  %9 = getelementptr inbounds nuw i8, ptr %7, i64 8
  store i32 %5, ptr %9, align 8, !noalias !599
  %10 = getelementptr inbounds nuw i8, ptr %1, i64 24
  %11 = load ptr, ptr %10, align 8, !tbaa !157, !noalias !599
  %.not.i.i = icmp eq ptr %11, null
  br i1 %.not.i.i, label %12, label %_ZNKSt8functionIFN5Yosys5SExprENS0_10Functional4NodeEEEclES3_.exit

12:                                               ; preds = %6
  tail call void @_ZSt25__throw_bad_function_callv() #28, !noalias !599
  unreachable

_ZNKSt8functionIFN5Yosys5SExprENS0_10Functional4NodeEEEclES3_.exit: ; preds = %6
  %13 = getelementptr inbounds nuw i8, ptr %1, i64 8
  %14 = getelementptr inbounds nuw i8, ptr %1, i64 32
  %15 = load ptr, ptr %14, align 8, !tbaa !159, !noalias !599
  call void %15(ptr dead_on_unwind nonnull writable sret(%"class.Yosys::SExpr") align 8 %8, ptr noundef nonnull align 8 dereferenceable(32) %13, ptr noundef nonnull align 8 dereferenceable(16) %7)
  call void @llvm.lifetime.end.p0(i64 16, ptr nonnull %7)
  invoke void @_ZN5Yosys9SExprUtil4listIJRA6_KcNS_5SExprEEEES5_DpOT_(ptr dead_on_unwind writable sret(%"class.Yosys::SExpr") align 8 %0, ptr noundef nonnull align 1 dereferenceable(6) @.str.123, ptr noundef nonnull align 8 dereferenceable(40) %8)
          to label %16 unwind label %28

16:                                               ; preds = %_ZNKSt8functionIFN5Yosys5SExprENS0_10Functional4NodeEEEclES3_.exit
  %17 = getelementptr inbounds nuw i8, ptr %8, i64 32
  %18 = load i8, ptr %17, align 8, !tbaa !117
  %switch.i.i.i = icmp eq i8 %18, 0
  br i1 %switch.i.i.i, label %.noexc1.i.i, label %19

.noexc1.i.i:                                      ; preds = %16
  call void @_ZNSt6vectorIN5Yosys5SExprESaIS1_EED2Ev(ptr noundef nonnull align 8 dereferenceable(40) %8) #26
  br label %_ZN5Yosys5SExprD2Ev.exit

19:                                               ; preds = %16
  %20 = load ptr, ptr %8, align 8, !tbaa !17
  %21 = getelementptr inbounds nuw i8, ptr %8, i64 16
  %22 = icmp eq ptr %20, %21
  br i1 %22, label %_ZNKSt7__cxx1112basic_stringIcSt11char_traitsIcESaIcEE11_M_is_localEv.exit.thread.i.i.i.i.i.i.i.i.i.i, label %_ZNKSt7__cxx1112basic_stringIcSt11char_traitsIcESaIcEE11_M_is_localEv.exit.i.i.i.i.i.i.i.i.i.i

_ZNKSt7__cxx1112basic_stringIcSt11char_traitsIcESaIcEE11_M_is_localEv.exit.thread.i.i.i.i.i.i.i.i.i.i: ; preds = %19
  %23 = getelementptr inbounds nuw i8, ptr %8, i64 8
  %24 = load i64, ptr %23, align 8, !tbaa !22
  %25 = icmp ult i64 %24, 16
  call void @llvm.assume(i1 %25)
  br label %_ZN5Yosys5SExprD2Ev.exit

_ZNKSt7__cxx1112basic_stringIcSt11char_traitsIcESaIcEE11_M_is_localEv.exit.i.i.i.i.i.i.i.i.i.i: ; preds = %19
  %26 = load i64, ptr %21, align 8, !tbaa !23
  %27 = add i64 %26, 1
  call void @_ZdlPvm(ptr noundef %20, i64 noundef %27) #27
  br label %_ZN5Yosys5SExprD2Ev.exit

_ZN5Yosys5SExprD2Ev.exit:                         ; preds = %.noexc1.i.i, %_ZNKSt7__cxx1112basic_stringIcSt11char_traitsIcESaIcEE11_M_is_localEv.exit.thread.i.i.i.i.i.i.i.i.i.i, %_ZNKSt7__cxx1112basic_stringIcSt11char_traitsIcESaIcEE11_M_is_localEv.exit.i.i.i.i.i.i.i.i.i.i
  call void @llvm.lifetime.end.p0(i64 40, ptr nonnull %8) #26
  ret void

28:                                               ; preds = %_ZNKSt8functionIFN5Yosys5SExprENS0_10Functional4NodeEEEclES3_.exit
  %29 = landingpad { ptr, i32 }
          cleanup
  call void @_ZN5Yosys5SExprD2Ev(ptr noundef nonnull align 8 dereferenceable(40) %8) #26
  call void @llvm.lifetime.end.p0(i64 40, ptr nonnull %8) #26
  resume { ptr, i32 } %29
}